; Function Attrs: mustprogress uwtable
define noundef double @_ZNK6colvar14distance_pairs5dist2ERK11colvarvalueS3_(ptr nonnull readnone align 8 captures(none) %0, ptr noundef nonnull align 8 dereferenceable(168) %1, ptr noundef nonnull align 8 dereferenceable(168) %2) unnamed_addr #2 align 2 personality ptr @__gxx_personality_v0 {
  %4 = alloca %"class.colvarmodule::vector1d", align 8
  call void @llvm.lifetime.start.p0(i64 24, ptr nonnull %4) #26
  %5 = getelementptr inbounds nuw i8, ptr %1, i64 72
  %6 = getelementptr inbounds nuw i8, ptr %2, i64 72
  call void @_ZmiRKN12colvarmodule8vector1dIdEES3_(ptr dead_on_unwind nonnull writable sret(%"class.colvarmodule::vector1d") align 8 %4, ptr noundef nonnull align 8 dereferenceable(24) %5, ptr noundef nonnull align 8 dereferenceable(24) %6)
  %7 = getelementptr inbounds nuw i8, ptr %4, i64 8
  %8 = load ptr, ptr %7, align 8, !tbaa !272
  %9 = load ptr, ptr %4, align 8, !tbaa !273
  %.not.i = icmp eq ptr %8, %9
  br i1 %.not.i, label %_ZNSt6vectorIdSaIdEE5clearEv.exit.i, label %.lr.ph.preheader.i

.lr.ph.preheader.i:                               ; preds = %3
  %10 = ptrtoint ptr %8 to i64
  %11 = ptrtoint ptr %9 to i64
  %12 = sub i64 %10, %11
  %13 = ashr exact i64 %12, 3
  %umax.i = call i64 @llvm.umax.i64(i64 %13, i64 1)
  br label %.lr.ph.i

.lr.ph.i:                                         ; preds = %.lr.ph.i, %.lr.ph.preheader.i
  %.08.i = phi i64 [ %17, %.lr.ph.i ], [ 0, %.lr.ph.preheader.i ]
  %.067.i = phi double [ %16, %.lr.ph.i ], [ 0.000000e+00, %.lr.ph.preheader.i ]
  %14 = getelementptr inbounds nuw double, ptr %9, i64 %.08.i
  %15 = load double, ptr %14, align 8, !tbaa !93
  %16 = call double @llvm.fmuladd.f64(double %15, double %15, double %.067.i)
  %17 = add nuw i64 %.08.i, 1
  %exitcond.not.i = icmp eq i64 %17, %umax.i
  br i1 %exitcond.not.i, label %_ZNSt6vectorIdSaIdEE5clearEv.exit.i.thread, label %.lr.ph.i, !llvm.loop !304

_ZNSt6vectorIdSaIdEE5clearEv.exit.i.thread:       ; preds = %.lr.ph.i
  store ptr %9, ptr %7, align 8, !tbaa !272
  br label %18

_ZNSt6vectorIdSaIdEE5clearEv.exit.i:              ; preds = %3
  %.not.i.i.i.i = icmp eq ptr %8, null
  br i1 %.not.i.i.i.i, label %_ZN12colvarmodule8vector1dIdED2Ev.exit, label %_ZNSt6vectorIdSaIdEE5clearEv.exit.i._crit_edge

_ZNSt6vectorIdSaIdEE5clearEv.exit.i._crit_edge:   ; preds = %_ZNSt6vectorIdSaIdEE5clearEv.exit.i
  %.pre = ptrtoint ptr %9 to i64
  br label %18

18:                                               ; preds = %_ZNSt6vectorIdSaIdEE5clearEv.exit.i._crit_edge, %_ZNSt6vectorIdSaIdEE5clearEv.exit.i.thread
  %.pre-phi = phi i64 [ %.pre, %_ZNSt6vectorIdSaIdEE5clearEv.exit.i._crit_edge ], [ %11, %_ZNSt6vectorIdSaIdEE5clearEv.exit.i.thread ]
  %.06.lcssa.i36 = phi double [ 0.000000e+00, %_ZNSt6vectorIdSaIdEE5clearEv.exit.i._crit_edge ], [ %16, %_ZNSt6vectorIdSaIdEE5clearEv.exit.i.thread ]
  %19 = getelementptr inbounds nuw i8, ptr %4, i64 16
  %20 = load ptr, ptr %19, align 8, !tbaa !305
  %21 = ptrtoint ptr %20 to i64
  %22 = sub i64 %21, %.pre-phi
  call void @_ZdlPvm(ptr noundef nonnull %9, i64 noundef %22) #27
  br label %_ZN12colvarmodule8vector1dIdED2Ev.exit

_ZN12colvarmodule8vector1dIdED2Ev.exit:           ; preds = %_ZNSt6vectorIdSaIdEE5clearEv.exit.i, %18
  %.06.lcssa.i37 = phi double [ 0.000000e+00, %_ZNSt6vectorIdSaIdEE5clearEv.exit.i ], [ %.06.lcssa.i36, %18 ]
  call void @llvm.lifetime.end.p0(i64 24, ptr nonnull %4) #26
  ret double %.06.lcssa.i37
}